; Function Attrs: mustprogress nofree norecurse nosync nounwind memory(argmem: write) uwtable
define void @_ZN6LibRaw18canon_600_fixed_wbEi(ptr noundef nonnull writeonly align 8 captures(none) dereferenceable(767680) %0, i32 noundef %1) local_unnamed_addr #0 align 2 {
  br label %3

3:                                                ; preds = %4, %2
  %indvars.iv = phi i64 [ %indvars.iv.next, %4 ], [ 4, %2 ]
  %indvars.iv.next = add nsw i64 %indvars.iv, -1
  %.not = icmp eq i64 %indvars.iv.next, 0
  br i1 %.not, label %.split.loop.exit41, label %4

4:                                                ; preds = %3
  %5 = getelementptr inbounds [4 x [5 x i16]], ptr @_ZZN6LibRaw18canon_600_fixed_wbEiE3mul, i64 0, i64 %indvars.iv.next
  %6 = load i16, ptr %5, align 2, !tbaa !6
  %7 = sext i16 %6 to i32
  %.not26 = icmp slt i32 %1, %7
  br i1 %.not26, label %3, label %.split.loop.exit, !llvm.loop !10

.split.loop.exit:                                 ; preds = %4
  %8 = trunc nuw nsw i64 %indvars.iv.next to i32
  br label %.split.loop.exit41

.split.loop.exit41:                               ; preds = %3, %.split.loop.exit
  %.lcssa = phi i32 [ %8, %.split.loop.exit ], [ 0, %3 ]
  br label %9

9:                                                ; preds = %.split.loop.exit41, %13
  %indvars.iv32 = phi i64 [ 0, %.split.loop.exit41 ], [ %indvars.iv.next33, %13 ]
  %10 = getelementptr inbounds nuw [4 x [5 x i16]], ptr @_ZZN6LibRaw18canon_600_fixed_wbEiE3mul, i64 0, i64 %indvars.iv32
  %11 = load i16, ptr %10, align 2, !tbaa !6
  %12 = sext i16 %11 to i32
  %.not27 = icmp sgt i32 %1, %12
  br i1 %.not27, label %13, label %.split.loop.exit43

13:                                               ; preds = %9
  %indvars.iv.next33 = add nuw nsw i64 %indvars.iv32, 1
  %exitcond.not = icmp eq i64 %indvars.iv.next33, 3
  br i1 %exitcond.not, label %.split.loop.exit44, label %9, !llvm.loop !12

.split.loop.exit43:                               ; preds = %9
  %14 = trunc nuw nsw i64 %indvars.iv32 to i32
  br label %.split.loop.exit44

.split.loop.exit44:                               ; preds = %13, %.split.loop.exit43
  %.023.lcssa = phi i32 [ %14, %.split.loop.exit43 ], [ 3, %13 ]
  %.not28 = icmp eq i32 %.lcssa, %.023.lcssa
  br i1 %.not28, label %._crit_edge, label %15

._crit_edge:                                      ; preds = %.split.loop.exit44
  %.pre = zext nneg i32 %.023.lcssa to i64
  %.pre39 = sext i32 %.lcssa to i64
  br label %29

15:                                               ; preds = %.split.loop.exit44
  %16 = sext i32 %.lcssa to i64
  %17 = getelementptr inbounds [4 x [5 x i16]], ptr @_ZZN6LibRaw18canon_600_fixed_wbEiE3mul, i64 0, i64 %16
  %18 = load i16, ptr %17, align 2, !tbaa !6
  %19 = sext i16 %18 to i32
  %20 = sub nsw i32 %1, %19
  %21 = sitofp i32 %20 to float
  %22 = zext nneg i32 %.023.lcssa to i64
  %23 = getelementptr inbounds nuw [4 x [5 x i16]], ptr @_ZZN6LibRaw18canon_600_fixed_wbEiE3mul, i64 0, i64 %22
  %24 = load i16, ptr %23, align 2, !tbaa !6
  %25 = sext i16 %24 to i32
  %26 = sub nsw i32 %25, %19
  %27 = sitofp i32 %26 to float
  %28 = fdiv reassoc nsz arcp contract afn float %21, %27
  br label %29

29:                                               ; preds = %._crit_edge, %15
  %.pre-phi40 = phi i64 [ %.pre39, %._crit_edge ], [ %16, %15 ]
  %.pre-phi = phi i64 [ %.pre, %._crit_edge ], [ %22, %15 ]
  %.0 = phi nsz float [ 0.000000e+00, %._crit_edge ], [ %28, %15 ]
  %30 = getelementptr inbounds nuw i8, ptr %0, i64 153192
  br label %31

31:                                               ; preds = %29, %31
  %indvars.iv35 = phi i64 [ 1, %29 ], [ %indvars.iv.next36, %31 ]
  %32 = getelementptr inbounds nuw [4 x [5 x i16]], ptr @_ZZN6LibRaw18canon_600_fixed_wbEiE3mul, i64 0, i64 %.pre-phi, i64 %indvars.iv35
  %33 = load i16, ptr %32, align 2, !tbaa !6
  %34 = sitofp i16 %33 to float
  %35 = getelementptr inbounds [4 x [5 x i16]], ptr @_ZZN6LibRaw18canon_600_fixed_wbEiE3mul, i64 0, i64 %.pre-phi40, i64 %indvars.iv35
  %36 = load i16, ptr %35, align 2, !tbaa !6
  %37 = sitofp i16 %36 to float
  %38 = fsub reassoc nsz arcp contract afn float %34, %37
  %39 = fmul reassoc nsz arcp contract afn float %38, %.0
  %40 = fadd reassoc nsz arcp contract afn float %39, %37
  %41 = fdiv reassoc nsz arcp contract afn float 1.000000e+00, %40
  %42 = add nsw i64 %indvars.iv35, -1
  %43 = getelementptr inbounds [4 x float], ptr %30, i64 0, i64 %42
  store float %41, ptr %43, align 4, !tbaa !13
  %indvars.iv.next36 = add nuw nsw i64 %indvars.iv35, 1
  %exitcond38.not = icmp eq i64 %indvars.iv.next36, 5
  br i1 %exitcond38.not, label %44, label %31, !llvm.loop !15

44:                                               ; preds = %31
  ret void
}